target datalayout = "e-m:e-p270:32:32-p271:32:32-p272:64:64-i64:64-i128:128-f80:128-n8:16:32:64-S128"
target triple = "x86_64-pc-linux-gnu"

%struct.ossl_param_st = type { ptr, i32, ptr, i64, i64 }

@mainctx = internal global ptr null, align 8
@.str.28 = private unnamed_addr constant [34 x i8] c"../openssl/test/evp_extra_test2.c\00", align 1
@.str.69 = private unnamed_addr constant [2 x i8] c"0\00", align 1
@.str.145 = private unnamed_addr constant [6 x i8] c"group\00", align 1
@.str.146 = private unnamed_addr constant [10 x i8] c"ffdhe2048\00", align 1
@.str.147 = private unnamed_addr constant [56 x i8] c"gctx = EVP_PKEY_CTX_new_from_name(mainctx, \22DHX\22, NULL)\00", align 1
@.str.148 = private unnamed_addr constant [4 x i8] c"DHX\00", align 1
@.str.149 = private unnamed_addr constant [27 x i8] c"EVP_PKEY_keygen_init(gctx)\00", align 1
@.str.150 = private unnamed_addr constant [38 x i8] c"EVP_PKEY_CTX_set_params(gctx, params)\00", align 1
@.str.151 = private unnamed_addr constant [30 x i8] c"EVP_PKEY_generate(gctx, &key)\00", align 1
@.str.152 = private unnamed_addr constant [39 x i8] c"do_pkey_tofrom_data_select(key, \22DHX\22)\00", align 1
@.str.153 = private unnamed_addr constant [30 x i8] c"dhkey = EVP_PKEY_get0_DH(key)\00", align 1
@.str.154 = private unnamed_addr constant [34 x i8] c"privkey = DH_get0_priv_key(dhkey)\00", align 1
@.str.155 = private unnamed_addr constant [21 x i8] c"BN_num_bits(privkey)\00", align 1
@.str.156 = private unnamed_addr constant [4 x i8] c"225\00", align 1

; Function Attrs: nounwind uwtable
define internal i32 @test_dh_tofrom_data_select() #0 {
  %1 = alloca i32, align 4
  %2 = alloca [2 x %struct.ossl_param_st], align 16
  %3 = alloca ptr, align 8
  %4 = alloca ptr, align 8
  %5 = alloca ptr, align 8
  %6 = alloca ptr, align 8
  %7 = alloca %struct.ossl_param_st, align 8
  %8 = alloca %struct.ossl_param_st, align 8
  call void @llvm.lifetime.start.p0(i64 4, ptr %1) #7
  call void @llvm.lifetime.start.p0(i64 80, ptr %2) #7
  call void @llvm.lifetime.start.p0(i64 8, ptr %3) #7
  store ptr null, ptr %3, align 8, !tbaa !13
  call void @llvm.lifetime.start.p0(i64 8, ptr %4) #7
  store ptr null, ptr %4, align 8, !tbaa !29
  call void @llvm.lifetime.start.p0(i64 8, ptr %5) #7
  call void @llvm.lifetime.start.p0(i64 8, ptr %6) #7
  %9 = getelementptr inbounds [2 x %struct.ossl_param_st], ptr %2, i64 0, i64 0
  call void @llvm.lifetime.start.p0(i64 40, ptr %7) #7
  call void @OSSL_PARAM_construct_utf8_string(ptr dead_on_unwind writable sret(%struct.ossl_param_st) align 8 %7, ptr noundef @.str.145, ptr noundef @.str.146, i64 noundef 0)
  call void @llvm.memcpy.p0.p0.i64(ptr align 16 %9, ptr align 8 %7, i64 40, i1 false), !tbaa.struct !37
  call void @llvm.lifetime.end.p0(i64 40, ptr %7) #7
  %10 = getelementptr inbounds [2 x %struct.ossl_param_st], ptr %2, i64 0, i64 1
  call void @llvm.lifetime.start.p0(i64 40, ptr %8) #7
  call void @OSSL_PARAM_construct_end(ptr dead_on_unwind writable sret(%struct.ossl_param_st) align 8 %8)
  call void @llvm.memcpy.p0.p0.i64(ptr align 8 %10, ptr align 8 %8, i64 40, i1 false), !tbaa.struct !37
  call void @llvm.lifetime.end.p0(i64 40, ptr %8) #7
  %11 = load ptr, ptr @mainctx, align 8, !tbaa !4
  %12 = call ptr @EVP_PKEY_CTX_new_from_name(ptr noundef %11, ptr noundef @.str.148, ptr noundef null)
  store ptr %12, ptr %4, align 8, !tbaa !29
  %13 = call i32 @test_ptr(ptr noundef @.str.28, i32 noundef 358, ptr noundef @.str.147, ptr noundef %12)
  %14 = icmp ne i32 %13, 0
  br i1 %14, label %15, label %40

15:                                               ; preds = %0
  %16 = load ptr, ptr %4, align 8, !tbaa !29
  %17 = call i32 @EVP_PKEY_keygen_init(ptr noundef %16)
  %18 = call i32 @test_int_gt(ptr noundef @.str.28, i32 noundef 359, ptr noundef @.str.149, ptr noundef @.str.69, i32 noundef %17, i32 noundef 0)
  %19 = icmp ne i32 %18, 0
  br i1 %19, label %20, label %40

20:                                               ; preds = %15
  %21 = load ptr, ptr %4, align 8, !tbaa !29
  %22 = getelementptr inbounds [2 x %struct.ossl_param_st], ptr %2, i64 0, i64 0
  %23 = call i32 @EVP_PKEY_CTX_set_params(ptr noundef %21, ptr noundef %22)
  %24 = icmp ne i32 %23, 0
  %25 = zext i1 %24 to i32
  %26 = call i32 @test_true(ptr noundef @.str.28, i32 noundef 360, ptr noundef @.str.150, i32 noundef %25)
  %27 = icmp ne i32 %26, 0
  br i1 %27, label %28, label %40

28:                                               ; preds = %20
  %29 = load ptr, ptr %4, align 8, !tbaa !29
  %30 = call i32 @EVP_PKEY_generate(ptr noundef %29, ptr noundef %3)
  %31 = call i32 @test_int_gt(ptr noundef @.str.28, i32 noundef 361, ptr noundef @.str.151, ptr noundef @.str.69, i32 noundef %30, i32 noundef 0)
  %32 = icmp ne i32 %31, 0
  br i1 %32, label %33, label %40

33:                                               ; preds = %28
  %34 = load ptr, ptr %3, align 8, !tbaa !13
  %35 = call i32 @do_pkey_tofrom_data_select(ptr noundef %34, ptr noundef @.str.148)
  %36 = icmp ne i32 %35, 0
  %37 = zext i1 %36 to i32
  %38 = call i32 @test_true(ptr noundef @.str.28, i32 noundef 362, ptr noundef @.str.152, i32 noundef %37)
  %39 = icmp ne i32 %38, 0
  br label %40

40:                                               ; preds = %33, %28, %20, %15, %0
  %41 = phi i1 [ false, %28 ], [ false, %20 ], [ false, %15 ], [ false, %0 ], [ %39, %33 ]
  %42 = zext i1 %41 to i32
  store i32 %42, ptr %1, align 4, !tbaa !11
  %43 = load i32, ptr %1, align 4, !tbaa !11
  %44 = icmp ne i32 %43, 0
  br i1 %44, label %45, label %60

45:                                               ; preds = %40
  %46 = load ptr, ptr %3, align 8, !tbaa !13
  %47 = call ptr @EVP_PKEY_get0_DH(ptr noundef %46)
  store ptr %47, ptr %5, align 8, !tbaa !40
  %48 = call i32 @test_ptr(ptr noundef @.str.28, i32 noundef 364, ptr noundef @.str.153, ptr noundef %47)
  %49 = icmp ne i32 %48, 0
  br i1 %49, label %50, label %60

50:                                               ; preds = %45
  %51 = load ptr, ptr %5, align 8, !tbaa !40
  %52 = call ptr @DH_get0_priv_key(ptr noundef %51)
  store ptr %52, ptr %6, align 8, !tbaa !25
  %53 = call i32 @test_ptr(ptr noundef @.str.28, i32 noundef 365, ptr noundef @.str.154, ptr noundef %52)
  %54 = icmp ne i32 %53, 0
  br i1 %54, label %55, label %60

55:                                               ; preds = %50
  %56 = load ptr, ptr %6, align 8, !tbaa !25
  %57 = call i32 @BN_num_bits(ptr noundef %56)
  %58 = call i32 @test_int_le(ptr noundef @.str.28, i32 noundef 366, ptr noundef @.str.155, ptr noundef @.str.156, i32 noundef %57, i32 noundef 225)
  %59 = icmp ne i32 %58, 0
  br label %60

60:                                               ; preds = %55, %50, %45, %40
  %61 = phi i1 [ false, %50 ], [ false, %45 ], [ false, %40 ], [ %59, %55 ]
  %62 = zext i1 %61 to i32
  store i32 %62, ptr %1, align 4, !tbaa !11
  %63 = load ptr, ptr %3, align 8, !tbaa !13
  call void @EVP_PKEY_free(ptr noundef %63)
  %64 = load ptr, ptr %4, align 8, !tbaa !29
  call void @EVP_PKEY_CTX_free(ptr noundef %64)
  %65 = load i32, ptr %1, align 4, !tbaa !11
  call void @llvm.lifetime.end.p0(i64 8, ptr %6) #7
  call void @llvm.lifetime.end.p0(i64 8, ptr %5) #7
  call void @llvm.lifetime.end.p0(i64 8, ptr %4) #7
  call void @llvm.lifetime.end.p0(i64 8, ptr %3) #7
  call void @llvm.lifetime.end.p0(i64 80, ptr %2) #7
  call void @llvm.lifetime.end.p0(i64 4, ptr %1) #7
  ret i32 %65
}