; Function Attrs: nounwind uwtable
define internal range(i32 0, 2) i32 @test_dh_tofrom_data_select() #0 {
  %1 = alloca [2 x %struct.ossl_param_st], align 16
  %2 = alloca ptr, align 8
  %3 = alloca %struct.ossl_param_st, align 8
  call void @llvm.lifetime.start.p0(i64 80, ptr nonnull %1) #7
  call void @llvm.lifetime.start.p0(i64 8, ptr nonnull %2) #7
  store ptr null, ptr %2, align 8, !tbaa !26
  call void @OSSL_PARAM_construct_utf8_string(ptr dead_on_unwind nonnull writable sret(%struct.ossl_param_st) align 8 %1, ptr noundef nonnull @.str.145, ptr noundef nonnull @.str.146, i64 noundef 0) #7
  %4 = getelementptr inbounds nuw i8, ptr %1, i64 40
  call void @llvm.lifetime.start.p0(i64 40, ptr nonnull %3) #7
  call void @OSSL_PARAM_construct_end(ptr dead_on_unwind nonnull writable sret(%struct.ossl_param_st) align 8 %3) #7
  call void @llvm.memcpy.p0.p0.i64(ptr noundef nonnull align 8 dereferenceable(40) %4, ptr noundef nonnull align 8 dereferenceable(40) %3, i64 40, i1 false), !tbaa.struct !23
  call void @llvm.lifetime.end.p0(i64 40, ptr nonnull %3) #7
  %5 = load ptr, ptr @mainctx, align 8, !tbaa !4
  %6 = call ptr @EVP_PKEY_CTX_new_from_name(ptr noundef %5, ptr noundef nonnull @.str.148, ptr noundef null) #7
  %7 = call i32 @test_ptr(ptr noundef nonnull @.str.28, i32 noundef 358, ptr noundef nonnull @.str.147, ptr noundef %6) #7
  %.not = icmp eq i32 %7, 0
  br i1 %.not, label %.critedge, label %8

8:                                                ; preds = %0
  %9 = call i32 @EVP_PKEY_keygen_init(ptr noundef %6) #7
  %10 = call i32 @test_int_gt(ptr noundef nonnull @.str.28, i32 noundef 359, ptr noundef nonnull @.str.149, ptr noundef nonnull @.str.69, i32 noundef %9, i32 noundef 0) #7
  %.not7 = icmp eq i32 %10, 0
  br i1 %.not7, label %.critedge, label %11

11:                                               ; preds = %8
  %12 = call i32 @EVP_PKEY_CTX_set_params(ptr noundef %6, ptr noundef nonnull %1) #7
  %13 = icmp ne i32 %12, 0
  %14 = zext i1 %13 to i32
  %15 = call i32 @test_true(ptr noundef nonnull @.str.28, i32 noundef 360, ptr noundef nonnull @.str.150, i32 noundef %14) #7
  %.not8 = icmp eq i32 %15, 0
  br i1 %.not8, label %.critedge, label %16

16:                                               ; preds = %11
  %17 = call i32 @EVP_PKEY_generate(ptr noundef %6, ptr noundef nonnull %2) #7
  %18 = call i32 @test_int_gt(ptr noundef nonnull @.str.28, i32 noundef 361, ptr noundef nonnull @.str.151, ptr noundef nonnull @.str.69, i32 noundef %17, i32 noundef 0) #7
  %.not9 = icmp eq i32 %18, 0
  br i1 %.not9, label %.critedge, label %19

19:                                               ; preds = %16
  %20 = load ptr, ptr %2, align 8, !tbaa !26
  %21 = call fastcc i32 @do_pkey_tofrom_data_select(ptr noundef %20, ptr noundef nonnull @.str.148)
  %22 = call i32 @test_true(ptr noundef nonnull @.str.28, i32 noundef 362, ptr noundef nonnull @.str.152, i32 noundef %21) #7
  %.not12 = icmp eq i32 %22, 0
  br i1 %.not12, label %.critedge, label %23

23:                                               ; preds = %19
  %24 = load ptr, ptr %2, align 8, !tbaa !26
  %25 = call ptr @EVP_PKEY_get0_DH(ptr noundef %24) #7
  %26 = call i32 @test_ptr(ptr noundef nonnull @.str.28, i32 noundef 364, ptr noundef nonnull @.str.153, ptr noundef %25) #7
  %.not10 = icmp eq i32 %26, 0
  br i1 %.not10, label %.critedge, label %27

27:                                               ; preds = %23
  %28 = call ptr @DH_get0_priv_key(ptr noundef %25) #7
  %29 = call i32 @test_ptr(ptr noundef nonnull @.str.28, i32 noundef 365, ptr noundef nonnull @.str.154, ptr noundef %28) #7
  %.not11 = icmp eq i32 %29, 0
  br i1 %.not11, label %.critedge, label %30

30:                                               ; preds = %27
  %31 = call i32 @BN_num_bits(ptr noundef %28) #7
  %32 = call i32 @test_int_le(ptr noundef nonnull @.str.28, i32 noundef 366, ptr noundef nonnull @.str.155, ptr noundef nonnull @.str.156, i32 noundef %31, i32 noundef 225) #7
  %33 = icmp ne i32 %32, 0
  %34 = zext i1 %33 to i32
  br label %.critedge

.critedge:                                        ; preds = %16, %11, %8, %0, %30, %27, %23, %19
  %35 = phi i32 [ 0, %27 ], [ 0, %23 ], [ 0, %19 ], [ %34, %30 ], [ 0, %0 ], [ 0, %8 ], [ 0, %11 ], [ 0, %16 ]
  %36 = load ptr, ptr %2, align 8, !tbaa !26
  call void @EVP_PKEY_free(ptr noundef %36) #7
  call void @EVP_PKEY_CTX_free(ptr noundef %6) #7
  call void @llvm.lifetime.end.p0(i64 8, ptr nonnull %2) #7
  call void @llvm.lifetime.end.p0(i64 80, ptr nonnull %1) #7
  ret i32 %35
}